; Function Attrs: nounwind uwtable
define dso_local void @migrateCloseSocket(ptr noundef readonly captures(none) %0, ptr noundef readonly captures(none) %1) local_unnamed_addr #0 {
  %3 = tail call ptr @sdsempty() #16
  %4 = getelementptr inbounds nuw i8, ptr %0, i64 8
  %5 = load ptr, ptr %4, align 8, !tbaa !64
  %6 = getelementptr inbounds i8, ptr %5, i64 -1
  %7 = load i8, ptr %6, align 1, !tbaa !5
  %8 = zext i8 %7 to i32
  %9 = and i32 %8, 7
  switch i32 %9, label %sdslen.exit [
    i32 0, label %10
    i32 1, label %13
    i32 2, label %17
    i32 3, label %21
    i32 4, label %25
  ]

10:                                               ; preds = %2
  %11 = lshr i32 %8, 3
  %12 = zext nneg i32 %11 to i64
  br label %sdslen.exit

13:                                               ; preds = %2
  %14 = getelementptr inbounds i8, ptr %5, i64 -3
  %15 = load i8, ptr %14, align 1, !tbaa !5
  %16 = zext i8 %15 to i64
  br label %sdslen.exit

17:                                               ; preds = %2
  %18 = getelementptr inbounds i8, ptr %5, i64 -5
  %19 = load i16, ptr %18, align 1, !tbaa !42
  %20 = zext i16 %19 to i64
  br label %sdslen.exit

21:                                               ; preds = %2
  %22 = getelementptr inbounds i8, ptr %5, i64 -9
  %23 = load i32, ptr %22, align 1, !tbaa !44
  %24 = zext i32 %23 to i64
  br label %sdslen.exit

25:                                               ; preds = %2
  %26 = getelementptr inbounds i8, ptr %5, i64 -17
  %27 = load i64, ptr %26, align 1, !tbaa !45
  br label %sdslen.exit

sdslen.exit:                                      ; preds = %2, %10, %13, %17, %21, %25
  %.0.i = phi i64 [ %27, %25 ], [ %24, %21 ], [ %20, %17 ], [ %16, %13 ], [ %12, %10 ], [ 0, %2 ]
  %28 = tail call ptr @sdscatlen(ptr noundef %3, ptr noundef nonnull %5, i64 noundef %.0.i) #16
  %29 = tail call ptr @sdscatlen(ptr noundef %28, ptr noundef nonnull @.str.14, i64 noundef 1) #16
  %30 = getelementptr inbounds nuw i8, ptr %1, i64 8
  %31 = load ptr, ptr %30, align 8, !tbaa !64
  %32 = getelementptr inbounds i8, ptr %31, i64 -1
  %33 = load i8, ptr %32, align 1, !tbaa !5
  %34 = zext i8 %33 to i32
  %35 = and i32 %34, 7
  switch i32 %35, label %sdslen.exit15 [
    i32 0, label %36
    i32 1, label %39
    i32 2, label %43
    i32 3, label %47
    i32 4, label %51
  ]

36:                                               ; preds = %sdslen.exit
  %37 = lshr i32 %34, 3
  %38 = zext nneg i32 %37 to i64
  br label %sdslen.exit15

39:                                               ; preds = %sdslen.exit
  %40 = getelementptr inbounds i8, ptr %31, i64 -3
  %41 = load i8, ptr %40, align 1, !tbaa !5
  %42 = zext i8 %41 to i64
  br label %sdslen.exit15

43:                                               ; preds = %sdslen.exit
  %44 = getelementptr inbounds i8, ptr %31, i64 -5
  %45 = load i16, ptr %44, align 1, !tbaa !42
  %46 = zext i16 %45 to i64
  br label %sdslen.exit15

47:                                               ; preds = %sdslen.exit
  %48 = getelementptr inbounds i8, ptr %31, i64 -9
  %49 = load i32, ptr %48, align 1, !tbaa !44
  %50 = zext i32 %49 to i64
  br label %sdslen.exit15

51:                                               ; preds = %sdslen.exit
  %52 = getelementptr inbounds i8, ptr %31, i64 -17
  %53 = load i64, ptr %52, align 1, !tbaa !45
  br label %sdslen.exit15

sdslen.exit15:                                    ; preds = %sdslen.exit, %36, %39, %43, %47, %51
  %.0.i14 = phi i64 [ %53, %51 ], [ %50, %47 ], [ %46, %43 ], [ %42, %39 ], [ %38, %36 ], [ 0, %sdslen.exit ]
  %54 = tail call ptr @sdscatlen(ptr noundef %29, ptr noundef nonnull %31, i64 noundef %.0.i14) #16
  %55 = load ptr, ptr getelementptr inbounds nuw (i8, ptr @server, i64 1848), align 8, !tbaa !74
  %56 = tail call ptr @dictFetchValue(ptr noundef %55, ptr noundef %54) #16
  %.not = icmp eq ptr %56, null
  br i1 %.not, label %64, label %57

57:                                               ; preds = %sdslen.exit15
  %58 = load ptr, ptr %56, align 8, !tbaa !78
  %59 = load ptr, ptr %58, align 8, !tbaa !79
  %60 = getelementptr inbounds nuw i8, ptr %59, i64 96
  %61 = load ptr, ptr %60, align 8, !tbaa !81
  tail call void %61(ptr noundef nonnull %58) #16
  tail call void @zfree(ptr noundef nonnull %56) #16
  %62 = load ptr, ptr getelementptr inbounds nuw (i8, ptr @server, i64 1848), align 8, !tbaa !74
  %63 = tail call i32 @dictDelete(ptr noundef %62, ptr noundef %54) #16
  br label %64

64:                                               ; preds = %sdslen.exit15, %57
  tail call void @sdsfree(ptr noundef %54) #16
  ret void
}